target datalayout = "e-m:e-p270:32:32-p271:32:32-p272:64:64-i64:64-i128:128-f80:128-n8:16:32:64-S128"
target triple = "x86_64-pc-linux-gnu"

@trace_curl = internal global { ptr, i32, i8, [3 x i8] } { ptr @.str.57, i32 0, i8 0, [3 x i8] zeroinitializer }, align 8

; Function Attrs: nounwind uwtable
define dso_local void @setup_curl_trace(ptr noundef %0) #0 {
  %2 = alloca ptr, align 8
  store ptr %0, ptr %2, align 8, !tbaa !11
  %3 = call i32 @trace_want(ptr noundef @trace_curl)
  %4 = icmp ne i32 %3, 0
  br i1 %4, label %6, label %5

5:                                                ; preds = %1
  br label %13

6:                                                ; preds = %1
  %7 = load ptr, ptr %2, align 8, !tbaa !11
  %8 = call i32 (ptr, i32, ...) @curl_easy_setopt(ptr noundef %7, i32 noundef 41, i64 noundef 1)
  %9 = load ptr, ptr %2, align 8, !tbaa !11
  %10 = call i32 (ptr, i32, ...) @curl_easy_setopt(ptr noundef %9, i32 noundef 20094, ptr noundef @curl_trace)
  %11 = load ptr, ptr %2, align 8, !tbaa !11
  %12 = call i32 (ptr, i32, ...) @curl_easy_setopt(ptr noundef %11, i32 noundef 10095, ptr noundef null)
  br label %13

13:                                               ; preds = %6, %5
  ret void
}