; Function Attrs: nounwind uwtable
define dso_local void @setup_curl_trace(ptr noundef %0) local_unnamed_addr #3 {
  %2 = tail call i32 @trace_want(ptr noundef nonnull @trace_curl) #22
  %.not = icmp eq i32 %2, 0
  br i1 %.not, label %7, label %3

3:                                                ; preds = %1
  %4 = tail call i32 (ptr, i32, ...) @curl_easy_setopt(ptr noundef %0, i32 noundef 41, i64 noundef 1) #22
  %5 = tail call i32 (ptr, i32, ...) @curl_easy_setopt(ptr noundef %0, i32 noundef 20094, ptr noundef nonnull @curl_trace) #22
  %6 = tail call i32 (ptr, i32, ...) @curl_easy_setopt(ptr noundef %0, i32 noundef 10095, ptr noundef null) #22
  br label %7

7:                                                ; preds = %1, %3
  ret void
}